; Function Attrs: mustprogress uwtable
define internal void @_ZNK12_GLOBAL__N_120BuiltinErrorRegistry21append_all_port_namesERSt6vectorINSt7__cxx1112basic_stringIcSt11char_traitsIcESaIcEEESaIS7_EE(ptr dead_on_unwind noalias writable sret(%"struct.vcpkg::ExpectedT.15") align 8 %0, ptr nocapture nonnull readnone align 8 %1, ptr nocapture nonnull readnone align 8 %2) unnamed_addr #2 align 2 personality ptr @__gxx_personality_v0 {
  %4 = alloca %"struct.vcpkg::LocalizedString", align 8
  %.sroa.0.0.copyload = load i64, ptr @_ZN5vcpkg23msgErrorRequireBaselineE, align 8
  call void @_ZN5vcpkg12error_prefixEv(ptr dead_on_unwind nonnull writable sret(%"struct.vcpkg::LocalizedString") align 8 %4)
  invoke void @_ZN5vcpkg3msg9format_toIJEJEEEvRNS_15LocalizedStringENS0_8MessageTIJDpT_EEEDpNS0_6TagArgINS_8identityIS5_E4typeET0_EE(ptr noundef nonnull align 8 dereferenceable(32) %4, i64 %.sroa.0.0.copyload)
          to label %_ZN5vcpkg3msg12format_errorIJEJEEENS_15LocalizedStringENS0_8MessageTIJDpT_EEEDpNS0_6TagArgINS_8identityIS4_E4typeET0_EE.exit unwind label %5

5:                                                ; preds = %3
  %6 = landingpad { ptr, i32 }
          cleanup
  call void @_ZNSt7__cxx1112basic_stringIcSt11char_traitsIcESaIcEED1Ev(ptr noundef nonnull align 8 dereferenceable(32) %4) #26
  resume { ptr, i32 } %6

_ZN5vcpkg3msg12format_errorIJEJEEENS_15LocalizedStringENS0_8MessageTIJDpT_EEEDpNS0_6TagArgINS_8identityIS4_E4typeET0_EE.exit: ; preds = %3
  call void @_ZNSt7__cxx1112basic_stringIcSt11char_traitsIcESaIcEEC1EOS4_(ptr noundef nonnull align 8 dereferenceable(32) %0, ptr noundef nonnull align 8 dereferenceable(32) %4) #26
  %7 = getelementptr inbounds i8, ptr %0, i64 32
  store i8 1, ptr %7, align 8
  call void @_ZNSt7__cxx1112basic_stringIcSt11char_traitsIcESaIcEED1Ev(ptr noundef nonnull align 8 dereferenceable(32) %4) #26
  ret void
}